target datalayout = "e-m:e-p270:32:32-p271:32:32-p272:64:64-i64:64-i128:128-f80:128-n8:16:32:64-S128"
target triple = "x86_64-pc-linux-gnu"

%struct.Qureg = type { i32, i32, i32, i64, i64, i32, i32, %struct.ComplexArray, %struct.ComplexArray, %struct.ComplexArray, ptr, ptr, ptr, ptr, ptr, ptr }
%struct.ComplexArray = type { ptr, ptr }
%struct.Complex = type { double, double }

@__func__.controlledCompactUnitary = private unnamed_addr constant [25 x i8] c"controlledCompactUnitary\00", align 1

; Function Attrs: nounwind uwtable
define void @controlledCompactUnitary(ptr noundef byval(%struct.Qureg) align 8 %0, i32 noundef %1, i32 noundef %2, double %3, double %4, double %5, double %6) #0 {
  %8 = alloca %struct.Complex, align 8
  %9 = alloca %struct.Complex, align 8
  %10 = alloca i32, align 4
  %11 = alloca i32, align 4
  %12 = alloca i32, align 4
  %13 = alloca %struct.Complex, align 8
  %14 = alloca %struct.Complex, align 8
  %15 = getelementptr inbounds nuw { double, double }, ptr %8, i32 0, i32 0
  store double %3, ptr %15, align 8
  %16 = getelementptr inbounds nuw { double, double }, ptr %8, i32 0, i32 1
  store double %4, ptr %16, align 8
  %17 = getelementptr inbounds nuw { double, double }, ptr %9, i32 0, i32 0
  store double %5, ptr %17, align 8
  %18 = getelementptr inbounds nuw { double, double }, ptr %9, i32 0, i32 1
  store double %6, ptr %18, align 8
  store i32 %1, ptr %10, align 4, !tbaa !4
  store i32 %2, ptr %11, align 4, !tbaa !4
  %19 = load i32, ptr %10, align 4, !tbaa !4
  %20 = load i32, ptr %11, align 4, !tbaa !4
  call void @validateControlTarget(ptr noundef byval(%struct.Qureg) align 8 %0, i32 noundef %19, i32 noundef %20, ptr noundef @__func__.controlledCompactUnitary)
  %21 = getelementptr inbounds nuw { double, double }, ptr %8, i32 0, i32 0
  %22 = load double, ptr %21, align 8
  %23 = getelementptr inbounds nuw { double, double }, ptr %8, i32 0, i32 1
  %24 = load double, ptr %23, align 8
  %25 = getelementptr inbounds nuw { double, double }, ptr %9, i32 0, i32 0
  %26 = load double, ptr %25, align 8
  %27 = getelementptr inbounds nuw { double, double }, ptr %9, i32 0, i32 1
  %28 = load double, ptr %27, align 8
  call void @validateUnitaryComplexPair(double %22, double %24, double %26, double %28, ptr noundef @__func__.controlledCompactUnitary)
  %29 = load i32, ptr %10, align 4, !tbaa !4
  %30 = load i32, ptr %11, align 4, !tbaa !4
  %31 = getelementptr inbounds nuw { double, double }, ptr %8, i32 0, i32 0
  %32 = load double, ptr %31, align 8
  %33 = getelementptr inbounds nuw { double, double }, ptr %8, i32 0, i32 1
  %34 = load double, ptr %33, align 8
  %35 = getelementptr inbounds nuw { double, double }, ptr %9, i32 0, i32 0
  %36 = load double, ptr %35, align 8
  %37 = getelementptr inbounds nuw { double, double }, ptr %9, i32 0, i32 1
  %38 = load double, ptr %37, align 8
  call void @statevec_controlledCompactUnitary(ptr noundef byval(%struct.Qureg) align 8 %0, i32 noundef %29, i32 noundef %30, double %32, double %34, double %36, double %38)
  %39 = getelementptr inbounds nuw %struct.Qureg, ptr %0, i32 0, i32 0
  %40 = load i32, ptr %39, align 8, !tbaa !13
  %41 = icmp ne i32 %40, 0
  br i1 %41, label %42, label %77

42:                                               ; preds = %7
  call void @llvm.lifetime.start.p0(i64 4, ptr %12) #7
  %43 = getelementptr inbounds nuw %struct.Qureg, ptr %0, i32 0, i32 1
  %44 = load i32, ptr %43, align 4, !tbaa !18
  store i32 %44, ptr %12, align 4, !tbaa !4
  %45 = load i32, ptr %10, align 4, !tbaa !4
  %46 = load i32, ptr %12, align 4, !tbaa !4
  %47 = add nsw i32 %45, %46
  %48 = load i32, ptr %11, align 4, !tbaa !4
  %49 = load i32, ptr %12, align 4, !tbaa !4
  %50 = add nsw i32 %48, %49
  %51 = getelementptr inbounds nuw { double, double }, ptr %8, i32 0, i32 0
  %52 = load double, ptr %51, align 8
  %53 = getelementptr inbounds nuw { double, double }, ptr %8, i32 0, i32 1
  %54 = load double, ptr %53, align 8
  %55 = call { double, double } @getConjugateScalar(double %52, double %54)
  %56 = getelementptr inbounds nuw { double, double }, ptr %13, i32 0, i32 0
  %57 = extractvalue { double, double } %55, 0
  store double %57, ptr %56, align 8
  %58 = getelementptr inbounds nuw { double, double }, ptr %13, i32 0, i32 1
  %59 = extractvalue { double, double } %55, 1
  store double %59, ptr %58, align 8
  %60 = getelementptr inbounds nuw { double, double }, ptr %9, i32 0, i32 0
  %61 = load double, ptr %60, align 8
  %62 = getelementptr inbounds nuw { double, double }, ptr %9, i32 0, i32 1
  %63 = load double, ptr %62, align 8
  %64 = call { double, double } @getConjugateScalar(double %61, double %63)
  %65 = getelementptr inbounds nuw { double, double }, ptr %14, i32 0, i32 0
  %66 = extractvalue { double, double } %64, 0
  store double %66, ptr %65, align 8
  %67 = getelementptr inbounds nuw { double, double }, ptr %14, i32 0, i32 1
  %68 = extractvalue { double, double } %64, 1
  store double %68, ptr %67, align 8
  %69 = getelementptr inbounds nuw { double, double }, ptr %13, i32 0, i32 0
  %70 = load double, ptr %69, align 8
  %71 = getelementptr inbounds nuw { double, double }, ptr %13, i32 0, i32 1
  %72 = load double, ptr %71, align 8
  %73 = getelementptr inbounds nuw { double, double }, ptr %14, i32 0, i32 0
  %74 = load double, ptr %73, align 8
  %75 = getelementptr inbounds nuw { double, double }, ptr %14, i32 0, i32 1
  %76 = load double, ptr %75, align 8
  call void @statevec_controlledCompactUnitary(ptr noundef byval(%struct.Qureg) align 8 %0, i32 noundef %47, i32 noundef %50, double %70, double %72, double %74, double %76)
  call void @llvm.lifetime.end.p0(i64 4, ptr %12) #7
  br label %77

77:                                               ; preds = %42, %7
  %78 = load i32, ptr %10, align 4, !tbaa !4
  %79 = load i32, ptr %11, align 4, !tbaa !4
  %80 = getelementptr inbounds nuw { double, double }, ptr %8, i32 0, i32 0
  %81 = load double, ptr %80, align 8
  %82 = getelementptr inbounds nuw { double, double }, ptr %8, i32 0, i32 1
  %83 = load double, ptr %82, align 8
  %84 = getelementptr inbounds nuw { double, double }, ptr %9, i32 0, i32 0
  %85 = load double, ptr %84, align 8
  %86 = getelementptr inbounds nuw { double, double }, ptr %9, i32 0, i32 1
  %87 = load double, ptr %86, align 8
  call void @qasm_recordControlledCompactUnitary(ptr noundef byval(%struct.Qureg) align 8 %0, double %81, double %83, double %85, double %87, i32 noundef %78, i32 noundef %79)
  ret void
}