; Function Attrs: nounwind uwtable
define void @controlledCompactUnitary(ptr noundef readonly byval(%struct.Qureg) align 8 captures(none) %0, i32 noundef %1, i32 noundef %2, double %3, double %4, double %5, double %6) local_unnamed_addr #0 {
  tail call void @validateControlTarget(ptr noundef nonnull byval(%struct.Qureg) align 8 %0, i32 noundef %1, i32 noundef %2, ptr noundef nonnull @__func__.controlledCompactUnitary) #17
  tail call void @validateUnitaryComplexPair(double %3, double %4, double %5, double %6, ptr noundef nonnull @__func__.controlledCompactUnitary) #17
  tail call void @statevec_controlledCompactUnitary(ptr noundef nonnull byval(%struct.Qureg) align 8 %0, i32 noundef %1, i32 noundef %2, double %3, double %4, double %5, double %6) #17
  %8 = load i32, ptr %0, align 8, !tbaa !12
  %.not = icmp eq i32 %8, 0
  br i1 %.not, label %20, label %9

9:                                                ; preds = %7
  %10 = getelementptr inbounds nuw i8, ptr %0, i64 4
  %11 = load i32, ptr %10, align 4, !tbaa !17
  %12 = add nsw i32 %11, %1
  %13 = add nsw i32 %11, %2
  %14 = tail call { double, double } @getConjugateScalar(double %3, double %4) #17
  %15 = extractvalue { double, double } %14, 0
  %16 = extractvalue { double, double } %14, 1
  %17 = tail call { double, double } @getConjugateScalar(double %5, double %6) #17
  %18 = extractvalue { double, double } %17, 0
  %19 = extractvalue { double, double } %17, 1
  tail call void @statevec_controlledCompactUnitary(ptr noundef nonnull byval(%struct.Qureg) align 8 %0, i32 noundef %12, i32 noundef %13, double %15, double %16, double %18, double %19) #17
  br label %20

20:                                               ; preds = %9, %7
  tail call void @qasm_recordControlledCompactUnitary(ptr noundef nonnull byval(%struct.Qureg) align 8 %0, double %3, double %4, double %5, double %6, i32 noundef %1, i32 noundef %2) #17
  ret void
}